target datalayout = "e-m:e-p270:32:32-p271:32:32-p272:64:64-i64:64-i128:128-f80:128-n8:16:32:64-S128"
target triple = "x86_64-pc-linux-gnu"

%struct.OSSL_TIME = type { i64 }
%struct.quic_reactor_st = type { %struct.bio_poll_descriptor_st, %struct.bio_poll_descriptor_st, %struct.OSSL_TIME, ptr, ptr, ptr, %struct.rio_notifier_st, ptr, i64, i8 }
%struct.bio_poll_descriptor_st = type { i32, %union.anon }
%union.anon = type { ptr }
%struct.rio_notifier_st = type { i32, i32 }

; Function Attrs: nounwind uwtable
define i32 @ossl_quic_reactor_can_support_poll_descriptor(ptr noundef %0, ptr noundef %1) #0 {
  %3 = alloca ptr, align 8
  %4 = alloca ptr, align 8
  store ptr %0, ptr %3, align 8, !tbaa !3
  store ptr %1, ptr %4, align 8, !tbaa !27
  %5 = load ptr, ptr %4, align 8, !tbaa !27
  %6 = getelementptr inbounds nuw %struct.bio_poll_descriptor_st, ptr %5, i32 0, i32 0
  %7 = load i32, ptr %6, align 8, !tbaa !32
  %8 = icmp eq i32 %7, 1
  %9 = zext i1 %8 to i32
  ret i32 %9
}

; Function Attrs: nounwind uwtable
define void @ossl_quic_reactor_set_poll_w(ptr noundef %0, ptr noundef %1) #0 {
  %3 = alloca ptr, align 8
  %4 = alloca ptr, align 8
  store ptr %0, ptr %3, align 8, !tbaa !3
  store ptr %1, ptr %4, align 8, !tbaa !27
  %5 = load ptr, ptr %4, align 8, !tbaa !27
  %6 = icmp eq ptr %5, null
  br i1 %6, label %7, label %11

7:                                                ; preds = %2
  %8 = load ptr, ptr %3, align 8, !tbaa !3
  %9 = getelementptr inbounds nuw %struct.quic_reactor_st, ptr %8, i32 0, i32 1
  %10 = getelementptr inbounds nuw %struct.bio_poll_descriptor_st, ptr %9, i32 0, i32 0
  store i32 0, ptr %10, align 8, !tbaa !20
  br label %15

11:                                               ; preds = %2
  %12 = load ptr, ptr %3, align 8, !tbaa !3
  %13 = getelementptr inbounds nuw %struct.quic_reactor_st, ptr %12, i32 0, i32 1
  %14 = load ptr, ptr %4, align 8, !tbaa !27
  call void @llvm.memcpy.p0.p0.i64(ptr align 8 %13, ptr align 8 %14, i64 16, i1 false), !tbaa.struct !29
  br label %15

15:                                               ; preds = %11, %7
  %16 = load ptr, ptr %3, align 8, !tbaa !3
  %17 = load ptr, ptr %3, align 8, !tbaa !3
  %18 = getelementptr inbounds nuw %struct.quic_reactor_st, ptr %17, i32 0, i32 1
  %19 = call i32 @ossl_quic_reactor_can_support_poll_descriptor(ptr noundef %16, ptr noundef %18)
  %20 = load ptr, ptr %3, align 8, !tbaa !3
  %21 = getelementptr inbounds nuw %struct.quic_reactor_st, ptr %20, i32 0, i32 9
  %22 = trunc i32 %19 to i8
  %23 = load i8, ptr %21, align 8
  %24 = and i8 %22, 1
  %25 = shl i8 %24, 3
  %26 = and i8 %23, -9
  %27 = or i8 %26, %25
  store i8 %27, ptr %21, align 8
  ret void
}