; Function Attrs: mustprogress nofree norecurse nosync nounwind willreturn memory(argmem: readwrite) uwtable
define void @ossl_quic_reactor_set_poll_w(ptr noundef captures(none) initializes((16, 20)) %0, ptr noundef readonly captures(address_is_null) %1) local_unnamed_addr #3 {
  %3 = icmp eq ptr %1, null
  %4 = getelementptr inbounds nuw i8, ptr %0, i64 16
  br i1 %3, label %5, label %6

5:                                                ; preds = %2
  store i32 0, ptr %4, align 8, !tbaa !15
  br label %9

6:                                                ; preds = %2
  tail call void @llvm.memcpy.p0.p0.i64(ptr noundef nonnull align 8 dereferenceable(16) %4, ptr noundef nonnull align 8 dereferenceable(16) %1, i64 16, i1 false), !tbaa.struct !22
  %.pre = load i32, ptr %4, align 8, !tbaa !25
  %7 = icmp eq i32 %.pre, 1
  %8 = select i1 %7, i8 8, i8 0
  br label %9

9:                                                ; preds = %6, %5
  %10 = phi i8 [ %8, %6 ], [ 0, %5 ]
  %11 = getelementptr inbounds nuw i8, ptr %0, i64 88
  %12 = load i8, ptr %11, align 8
  %13 = and i8 %12, -9
  %14 = or disjoint i8 %13, %10
  store i8 %14, ptr %11, align 8
  ret void
}